target datalayout = "e-m:e-p270:32:32-p271:32:32-p272:64:64-i64:64-i128:128-f80:128-n8:16:32:64-S128"
target triple = "x86_64-pc-linux-gnu"

%struct.ImRect = type { %struct.ImVec2, %struct.ImVec2 }
%struct.ImVec2 = type { float, float }
%struct.ImGuiTextBuffer = type { %struct.ImVector.28 }
%struct.ImVector.28 = type { i32, i32, ptr }
%struct.ImGuiTableInstanceData = type { i32, float, float, float, i32, i32 }
%struct.ImGuiTableColumn = type <{ i32, float, float, float, float, float, float, float, float, %struct.ImRect, i32, float, float, float, float, float, float, float, i16, i16, i16, i16, i16, i16, i16, i16, i16, i8, i8, i8, i8, i8, i8, i8, i8, i8, i8, i8, i8, i8, i8 }>
%struct.ImGuiTable = type <{ i32, i32, ptr, ptr, %struct.ImSpan, %struct.ImSpan.41, %struct.ImSpan.42, ptr, ptr, ptr, i32, i32, i32, i32, i32, i32, i16, i16, float, float, float, float, float, float, i32, i32, [2 x i32], i32, i32, float, float, float, float, float, float, float, float, float, float, float, float, float, float, float, float, float, %struct.ImRect, %struct.ImRect, %struct.ImRect, %struct.ImRect, %struct.ImRect, %struct.ImRect, %struct.ImRect, %struct.ImRect, %struct.ImRect, ptr, ptr, %struct.ImGuiTextBuffer, ptr, %struct.ImGuiTableInstanceData, %struct.ImVector.43, %struct.ImGuiTableColumnSortSpecs, [4 x i8], %struct.ImVector.44, %struct.ImGuiTableSortSpecs, i16, i16, i16, i16, i16, i16, i16, i16, i16, i16, i16, i16, i16, i16, i16, i16, i16, i16, i16, i16, i16, i16, i16, i16, i16, i16, i16, i8, i8, i8, i8, i8, i8, i8, i8, i8, i8, i8, i8, i8, i8, i8, i8, i8, i8, i8, i8, [6 x i8] }>
%struct.ImSpan = type { ptr, ptr }
%struct.ImSpan.41 = type { ptr, ptr }
%struct.ImSpan.42 = type { ptr, ptr }
%struct.ImVector.43 = type { i32, i32, ptr }
%struct.ImGuiTableColumnSortSpecs = type <{ i32, i16, i16, i8, [3 x i8] }>
%struct.ImVector.44 = type { i32, i32, ptr }
%struct.ImGuiTableSortSpecs = type <{ ptr, i32, i8, [3 x i8] }>

; Function Attrs: inlinehint mustprogress nounwind uwtable
define internal noundef zeroext i8 @_ZL32TableGetColumnAvailSortDirectionP16ImGuiTableColumni(ptr noundef %0, i32 noundef %1) #4 {
  %3 = alloca ptr, align 8
  %4 = alloca i32, align 4
  store ptr %0, ptr %3, align 8, !tbaa !259
  store i32 %1, ptr %4, align 4, !tbaa !4
  %5 = load ptr, ptr %3, align 8, !tbaa !259
  %6 = getelementptr inbounds nuw %struct.ImGuiTableColumn, ptr %5, i32 0, i32 39
  %7 = load i8, ptr %6, align 2, !tbaa !465
  %8 = zext i8 %7 to i32
  %9 = load i32, ptr %4, align 4, !tbaa !4
  %10 = shl i32 %9, 1
  %11 = ashr i32 %8, %10
  %12 = and i32 %11, 3
  %13 = trunc i32 %12 to i8
  ret i8 %13
}

; Function Attrs: mustprogress uwtable
define dso_local void @_ZN5ImGui27TableFixColumnSortDirectionEP10ImGuiTableP16ImGuiTableColumn(ptr noundef %0, ptr noundef %1) #0 {
  %3 = alloca ptr, align 8
  %4 = alloca ptr, align 8
  store ptr %0, ptr %3, align 8, !tbaa !166
  store ptr %1, ptr %4, align 8, !tbaa !259
  %5 = load ptr, ptr %4, align 8, !tbaa !259
  %6 = getelementptr inbounds nuw %struct.ImGuiTableColumn, ptr %5, i32 0, i32 23
  %7 = load i16, ptr %6, align 2, !tbaa !350
  %8 = sext i16 %7 to i32
  %9 = icmp eq i32 %8, -1
  br i1 %9, label %24, label %10

10:                                               ; preds = %2
  %11 = load ptr, ptr %4, align 8, !tbaa !259
  %12 = getelementptr inbounds nuw %struct.ImGuiTableColumn, ptr %11, i32 0, i32 38
  %13 = load i8, ptr %12, align 1
  %14 = lshr i8 %13, 4
  %15 = zext i8 %14 to i32
  %16 = load ptr, ptr %4, align 8, !tbaa !259
  %17 = getelementptr inbounds nuw %struct.ImGuiTableColumn, ptr %16, i32 0, i32 38
  %18 = load i8, ptr %17, align 1
  %19 = and i8 %18, 3
  %20 = zext i8 %19 to i32
  %21 = shl i32 1, %20
  %22 = and i32 %15, %21
  %23 = icmp ne i32 %22, 0
  br i1 %23, label %24, label %25

24:                                               ; preds = %10, %2
  br label %36

25:                                               ; preds = %10
  %26 = load ptr, ptr %4, align 8, !tbaa !259
  %27 = call noundef zeroext i8 @_ZL32TableGetColumnAvailSortDirectionP16ImGuiTableColumni(ptr noundef %26, i32 noundef 0)
  %28 = load ptr, ptr %4, align 8, !tbaa !259
  %29 = getelementptr inbounds nuw %struct.ImGuiTableColumn, ptr %28, i32 0, i32 38
  %30 = load i8, ptr %29, align 1
  %31 = and i8 %27, 3
  %32 = and i8 %30, -4
  %33 = or i8 %32, %31
  store i8 %33, ptr %29, align 1
  %34 = load ptr, ptr %3, align 8, !tbaa !166
  %35 = getelementptr inbounds nuw %struct.ImGuiTable, ptr %34, i32 0, i32 95
  store i8 1, ptr %35, align 1, !tbaa !267
  br label %36

36:                                               ; preds = %25, %24
  ret void
}