; Function Attrs: mustprogress nofree norecurse nosync nounwind willreturn memory(argmem: readwrite) uwtable
define dso_local void @_ZN5ImGui27TableFixColumnSortDirectionEP10ImGuiTableP16ImGuiTableColumn(ptr noundef writeonly captures(none) %0, ptr noundef captures(none) %1) local_unnamed_addr #10 {
  %3 = getelementptr inbounds nuw i8, ptr %1, i64 94
  %4 = load i16, ptr %3, align 2, !tbaa !338
  %5 = icmp eq i16 %4, -1
  br i1 %5, label %21, label %6

6:                                                ; preds = %2
  %7 = getelementptr inbounds nuw i8, ptr %1, i64 113
  %8 = load i8, ptr %7, align 1
  %9 = lshr i8 %8, 4
  %10 = zext nneg i8 %9 to i32
  %11 = and i8 %8, 3
  %12 = zext nneg i8 %11 to i32
  %13 = shl nuw nsw i32 1, %12
  %14 = and i32 %13, %10
  %.not = icmp eq i32 %14, 0
  br i1 %.not, label %15, label %21

15:                                               ; preds = %6
  %16 = getelementptr i8, ptr %1, i64 114
  %.val = load i8, ptr %16, align 2, !tbaa !430
  %17 = and i8 %.val, 3
  %18 = and i8 %8, -4
  %19 = or disjoint i8 %17, %18
  store i8 %19, ptr %7, align 1
  %20 = getelementptr inbounds nuw i8, ptr %0, i64 569
  store i8 1, ptr %20, align 1, !tbaa !288
  br label %21

21:                                               ; preds = %2, %6, %15
  ret void
}